target datalayout = "e-m:e-p270:32:32-p271:32:32-p272:64:64-i64:64-i128:128-f80:128-n8:16:32:64-S128"
target triple = "x86_64-pc-linux-gnu"

@dcom_prefs_display_unmarshalling_details = global i32 0, align 4
@hf_dcom_array_size = internal global i32 0, align 4
@.str.145 = private unnamed_addr constant [1 x i8] zeroinitializer, align 1
@ett_dcom_lpwstr = internal global i32 0, align 4
@hf_dcom_max_count = internal global i32 0, align 4
@hf_dcom_offset = internal global i32 0, align 4
@.str.146 = private unnamed_addr constant [15 x i8] c"%s[%u]: %s%s%s\00", align 1
@.str.147 = private unnamed_addr constant [2 x i8] c"\22\00", align 1
@.str.148 = private unnamed_addr constant [7 x i8] c"%s%s%s\00", align 1

; Function Attrs: nounwind uwtable
define i32 @dissect_dcom_dcerpc_array_size(ptr noundef %0, i32 noundef %1, ptr noundef %2, ptr noundef %3, ptr noundef %4, ptr noundef %5, ptr noundef %6) #0 {
  %8 = alloca ptr, align 8
  %9 = alloca i32, align 4
  %10 = alloca ptr, align 8
  %11 = alloca ptr, align 8
  %12 = alloca ptr, align 8
  %13 = alloca ptr, align 8
  %14 = alloca ptr, align 8
  store ptr %0, ptr %8, align 8
  store i32 %1, ptr %9, align 4
  store ptr %2, ptr %10, align 8
  store ptr %3, ptr %11, align 8
  store ptr %4, ptr %12, align 8
  store ptr %5, ptr %13, align 8
  store ptr %6, ptr %14, align 8
  %15 = load i32, ptr @dcom_prefs_display_unmarshalling_details, align 4
  %16 = icmp ne i32 %15, 0
  br i1 %16, label %18, label %17

17:                                               ; preds = %7
  store ptr null, ptr %11, align 8
  br label %18

18:                                               ; preds = %17, %7
  %19 = load ptr, ptr %8, align 8
  %20 = load i32, ptr %9, align 4
  %21 = load ptr, ptr %10, align 8
  %22 = load ptr, ptr %11, align 8
  %23 = load ptr, ptr %12, align 8
  %24 = load ptr, ptr %13, align 8
  %25 = load i32, ptr @hf_dcom_array_size, align 4
  %26 = load ptr, ptr %14, align 8
  %27 = call i32 @dissect_ndr_uint32(ptr noundef %19, i32 noundef %20, ptr noundef %21, ptr noundef %22, ptr noundef %23, ptr noundef %24, i32 noundef %25, ptr noundef %26)
  store i32 %27, ptr %9, align 4
  %28 = load i32, ptr %9, align 4
  ret i32 %28
}

; Function Attrs: nounwind uwtable
define i32 @dissect_dcom_indexed_LPWSTR(ptr noundef %0, i32 noundef %1, ptr noundef %2, ptr noundef %3, ptr noundef %4, ptr noundef %5, i32 noundef %6, ptr noundef %7, i32 noundef %8, i32 noundef %9) #0 {
  %11 = alloca ptr, align 8
  %12 = alloca i32, align 4
  %13 = alloca ptr, align 8
  %14 = alloca ptr, align 8
  %15 = alloca ptr, align 8
  %16 = alloca ptr, align 8
  %17 = alloca i32, align 4
  %18 = alloca ptr, align 8
  %19 = alloca i32, align 4
  %20 = alloca i32, align 4
  %21 = alloca i32, align 4
  %22 = alloca i32, align 4
  %23 = alloca i32, align 4
  %24 = alloca i32, align 4
  %25 = alloca ptr, align 8
  %26 = alloca ptr, align 8
  %27 = alloca i32, align 4
  %28 = alloca i32, align 4
  store ptr %0, ptr %11, align 8
  store i32 %1, ptr %12, align 4
  store ptr %2, ptr %13, align 8
  store ptr %3, ptr %14, align 8
  store ptr %4, ptr %15, align 8
  store ptr %5, ptr %16, align 8
  store i32 %6, ptr %17, align 4
  store ptr %7, ptr %18, align 8
  store i32 %8, ptr %19, align 4
  store i32 %9, ptr %20, align 4
  %29 = load i32, ptr %12, align 4
  %30 = srem i32 %29, 4
  %31 = icmp ne i32 %30, 0
  br i1 %31, label %32, label %38

32:                                               ; preds = %10
  %33 = load i32, ptr %12, align 4
  %34 = srem i32 %33, 4
  %35 = sub i32 4, %34
  %36 = load i32, ptr %12, align 4
  %37 = add i32 %36, %35
  store i32 %37, ptr %12, align 4
  br label %38

38:                                               ; preds = %32, %10
  %39 = load ptr, ptr %14, align 8
  %40 = load i32, ptr %17, align 4
  %41 = load ptr, ptr %11, align 8
  %42 = load i32, ptr %12, align 4
  %43 = call ptr @proto_tree_add_string(ptr noundef %39, i32 noundef %40, ptr noundef %41, i32 noundef %42, i32 noundef 0, ptr noundef @.str.145)
  store ptr %43, ptr %25, align 8
  %44 = load ptr, ptr %25, align 8
  %45 = load i32, ptr @ett_dcom_lpwstr, align 4
  %46 = call ptr @proto_item_add_subtree(ptr noundef %44, i32 noundef %45)
  store ptr %46, ptr %26, align 8
  %47 = load i32, ptr %12, align 4
  store i32 %47, ptr %27, align 4
  %48 = load ptr, ptr %11, align 8
  %49 = load i32, ptr %12, align 4
  %50 = load ptr, ptr %13, align 8
  %51 = load ptr, ptr %26, align 8
  %52 = load ptr, ptr %15, align 8
  %53 = load ptr, ptr %16, align 8
  %54 = load i32, ptr @hf_dcom_max_count, align 4
  %55 = call i32 @dissect_ndr_uint32(ptr noundef %48, i32 noundef %49, ptr noundef %50, ptr noundef %51, ptr noundef %52, ptr noundef %53, i32 noundef %54, ptr noundef %21)
  store i32 %55, ptr %12, align 4
  %56 = load ptr, ptr %11, align 8
  %57 = load i32, ptr %12, align 4
  %58 = load ptr, ptr %13, align 8
  %59 = load ptr, ptr %26, align 8
  %60 = load ptr, ptr %15, align 8
  %61 = load ptr, ptr %16, align 8
  %62 = load i32, ptr @hf_dcom_offset, align 4
  %63 = call i32 @dissect_ndr_uint32(ptr noundef %56, i32 noundef %57, ptr noundef %58, ptr noundef %59, ptr noundef %60, ptr noundef %61, i32 noundef %62, ptr noundef %22)
  store i32 %63, ptr %12, align 4
  %64 = load ptr, ptr %11, align 8
  %65 = load i32, ptr %12, align 4
  %66 = load ptr, ptr %13, align 8
  %67 = load ptr, ptr %26, align 8
  %68 = load ptr, ptr %15, align 8
  %69 = load ptr, ptr %16, align 8
  %70 = call i32 @dissect_dcom_dcerpc_array_size(ptr noundef %64, i32 noundef %65, ptr noundef %66, ptr noundef %67, ptr noundef %68, ptr noundef %69, ptr noundef %23)
  store i32 %70, ptr %12, align 4
  %71 = load i32, ptr %12, align 4
  store i32 %71, ptr %24, align 4
  %72 = load ptr, ptr %11, align 8
  %73 = load i32, ptr %12, align 4
  %74 = load i32, ptr %23, align 4
  %75 = mul i32 %74, 2
  %76 = load ptr, ptr %18, align 8
  %77 = load i32, ptr %19, align 4
  %78 = call i32 @dcom_tvb_get_nwstringz0(ptr noundef %72, i32 noundef %73, i32 noundef %75, ptr noundef %76, i32 noundef %77, ptr noundef %28)
  store i32 %78, ptr %12, align 4
  %79 = load ptr, ptr %26, align 8
  %80 = load i32, ptr %17, align 4
  %81 = load ptr, ptr %11, align 8
  %82 = load i32, ptr %24, align 4
  %83 = load i32, ptr %12, align 4
  %84 = load i32, ptr %24, align 4
  %85 = sub i32 %83, %84
  %86 = load ptr, ptr %18, align 8
  %87 = call ptr @proto_tree_add_string(ptr noundef %79, i32 noundef %80, ptr noundef %81, i32 noundef %82, i32 noundef %85, ptr noundef %86)
  %88 = load i32, ptr %20, align 4
  %89 = icmp ne i32 %88, -1
  br i1 %89, label %90, label %102

90:                                               ; preds = %38
  %91 = load ptr, ptr %25, align 8
  %92 = load i32, ptr %17, align 4
  %93 = call ptr @proto_registrar_get_name(i32 noundef %92)
  %94 = load i32, ptr %20, align 4
  %95 = load i32, ptr %28, align 4
  %96 = icmp ne i32 %95, 0
  %97 = select i1 %96, ptr @.str.147, ptr @.str.145
  %98 = load ptr, ptr %18, align 8
  %99 = load i32, ptr %28, align 4
  %100 = icmp ne i32 %99, 0
  %101 = select i1 %100, ptr @.str.147, ptr @.str.145
  call void (ptr, ptr, ...) @proto_item_set_text(ptr noundef %91, ptr noundef @.str.146, ptr noundef %93, i32 noundef %94, ptr noundef %97, ptr noundef %98, ptr noundef %101)
  br label %111

102:                                              ; preds = %38
  %103 = load ptr, ptr %25, align 8
  %104 = load i32, ptr %28, align 4
  %105 = icmp ne i32 %104, 0
  %106 = select i1 %105, ptr @.str.147, ptr @.str.145
  %107 = load ptr, ptr %18, align 8
  %108 = load i32, ptr %28, align 4
  %109 = icmp ne i32 %108, 0
  %110 = select i1 %109, ptr @.str.147, ptr @.str.145
  call void (ptr, ptr, ...) @proto_item_append_text(ptr noundef %103, ptr noundef @.str.148, ptr noundef %106, ptr noundef %107, ptr noundef %110)
  br label %111

111:                                              ; preds = %102, %90
  %112 = load ptr, ptr %25, align 8
  %113 = load i32, ptr %12, align 4
  %114 = load i32, ptr %27, align 4
  %115 = sub i32 %113, %114
  call void @proto_item_set_len(ptr noundef %112, i32 noundef %115)
  %116 = load i32, ptr %12, align 4
  ret i32 %116
}