; Function Attrs: nounwind uwtable
define i32 @dissect_dcom_indexed_LPWSTR(ptr noundef %0, i32 noundef %1, ptr noundef %2, ptr noundef %3, ptr noundef %4, ptr noundef %5, i32 noundef %6, ptr noundef %7, i32 noundef %8, i32 noundef %9) local_unnamed_addr #1 {
  %11 = alloca i32, align 4
  %12 = alloca i32, align 4
  %13 = alloca i32, align 4
  %14 = alloca i32, align 4
  %15 = srem i32 %1, 4
  %.not = icmp eq i32 %15, 0
  %reass.sub = add i32 %1, 4
  %16 = sub i32 %reass.sub, %15
  %.0 = select i1 %.not, i32 %1, i32 %16
  %17 = tail call ptr @proto_tree_add_string(ptr noundef %3, i32 noundef %6, ptr noundef %0, i32 noundef %.0, i32 noundef 0, ptr noundef nonnull @.str.145) #11
  %18 = load i32, ptr @ett_dcom_lpwstr, align 4
  %19 = tail call ptr @proto_item_add_subtree(ptr noundef %17, i32 noundef %18) #11
  %20 = load i32, ptr @hf_dcom_max_count, align 4
  %21 = call i32 @dissect_ndr_uint32(ptr noundef %0, i32 noundef %.0, ptr noundef %2, ptr noundef %19, ptr noundef %4, ptr noundef %5, i32 noundef %20, ptr noundef nonnull %11) #11
  %22 = load i32, ptr @hf_dcom_offset, align 4
  %23 = call i32 @dissect_ndr_uint32(ptr noundef %0, i32 noundef %21, ptr noundef %2, ptr noundef %19, ptr noundef %4, ptr noundef %5, i32 noundef %22, ptr noundef nonnull %12) #11
  %24 = load i32, ptr @dcom_prefs_display_unmarshalling_details, align 4
  %.not.i = icmp eq i32 %24, 0
  %spec.select.i = select i1 %.not.i, ptr null, ptr %19
  %25 = load i32, ptr @hf_dcom_array_size, align 4
  %26 = call i32 @dissect_ndr_uint32(ptr noundef %0, i32 noundef %23, ptr noundef %2, ptr noundef %spec.select.i, ptr noundef %4, ptr noundef %5, i32 noundef %25, ptr noundef nonnull %13) #11
  %27 = load i32, ptr %13, align 4
  %28 = shl i32 %27, 1
  %29 = call fastcc i32 @dcom_tvb_get_nwstringz0(ptr noundef %0, i32 noundef %26, i32 noundef %28, ptr noundef %7, i32 noundef %8, ptr noundef %14)
  %30 = sub i32 %29, %26
  %31 = call ptr @proto_tree_add_string(ptr noundef %19, i32 noundef %6, ptr noundef %0, i32 noundef %26, i32 noundef %30, ptr noundef %7) #11
  %.not51 = icmp eq i32 %9, -1
  br i1 %.not51, label %36, label %32

32:                                               ; preds = %10
  %33 = call ptr @proto_registrar_get_name(i32 noundef %6) #11
  %34 = load i32, ptr %14, align 4
  %.not53 = icmp eq i32 %34, 0
  %35 = select i1 %.not53, ptr @.str.145, ptr @.str.147
  call void (ptr, ptr, ...) @proto_item_set_text(ptr noundef %17, ptr noundef nonnull @.str.146, ptr noundef %33, i32 noundef %9, ptr noundef nonnull %35, ptr noundef %7, ptr noundef nonnull %35) #11
  br label %39

36:                                               ; preds = %10
  %37 = load i32, ptr %14, align 4
  %.not52 = icmp eq i32 %37, 0
  %38 = select i1 %.not52, ptr @.str.145, ptr @.str.147
  call void (ptr, ptr, ...) @proto_item_append_text(ptr noundef %17, ptr noundef nonnull @.str.148, ptr noundef nonnull %38, ptr noundef %7, ptr noundef nonnull %38) #11
  br label %39

39:                                               ; preds = %36, %32
  %40 = sub i32 %29, %.0
  call void @proto_item_set_len(ptr noundef %17, i32 noundef %40) #11
  ret i32 %29
}